; Function Attrs: mustprogress uwtable
define noundef nonnull align 8 dereferenceable(32) ptr @_ZN5boost10filesystem4path25remove_trailing_separatorEv(ptr noundef nonnull returned align 8 dereferenceable(32) %0) local_unnamed_addr #1 align 2 {
  %2 = getelementptr inbounds nuw i8, ptr %0, i64 8
  %3 = load i64, ptr %2, align 8, !tbaa !10
  %4 = icmp eq i64 %3, 0
  br i1 %4, label %15, label %5

5:                                                ; preds = %1
  %6 = load ptr, ptr %0, align 8, !tbaa !3
  %7 = getelementptr i8, ptr %6, i64 %3
  %8 = getelementptr i8, ptr %7, i64 -1
  %9 = load i8, ptr %8, align 1, !tbaa !11
  %10 = icmp eq i8 %9, 47
  br i1 %10, label %11, label %15

11:                                               ; preds = %5
  %12 = ptrtoint ptr %8 to i64
  %13 = ptrtoint ptr %6 to i64
  %14 = sub i64 %12, %13
  tail call void @_ZNSt7__cxx1112basic_stringIcSt11char_traitsIcESaIcEE8_M_eraseEmm(ptr noundef nonnull align 8 dereferenceable(32) %0, i64 noundef %14, i64 noundef 1)
  br label %15

15:                                               ; preds = %11, %5, %1
  ret ptr %0
}